; Function Attrs: mustprogress uwtable
define hidden void @_ZN3smt12theory_array18instantiate_axiom1EPNS_5enodeE(ptr noundef nonnull align 8 dereferenceable(444) %0, ptr noundef %1) local_unnamed_addr #4 align 2 {
  %3 = getelementptr inbounds nuw i8, ptr %0, i64 272
  %4 = load i32, ptr %3, align 8, !tbaa !614
  %5 = add i32 %4, 1
  store i32 %5, ptr %3, align 8, !tbaa !614
  %6 = getelementptr inbounds nuw i8, ptr %0, i64 72
  %7 = load ptr, ptr %6, align 8, !tbaa !550
  %8 = icmp eq ptr %7, null
  br i1 %8, label %15, label %9

9:                                                ; preds = %2
  %10 = getelementptr inbounds i8, ptr %7, i64 -4
  %11 = load i32, ptr %10, align 4, !tbaa !560
  %12 = getelementptr inbounds i8, ptr %7, i64 -8
  %13 = load i32, ptr %12, align 4, !tbaa !560
  %14 = icmp eq i32 %11, %13
  br i1 %14, label %15, label %_ZN3smt17theory_array_base19assert_store_axiom1EPNS_5enodeE.exit

15:                                               ; preds = %9, %2
  tail call void @_ZN6vectorIPN3smt5enodeELb0EjE13expand_vectorEv(ptr noundef nonnull align 8 dereferenceable(8) %6)
  %.pre.i.i = load ptr, ptr %6, align 8, !tbaa !550
  %.phi.trans.insert.i.i = getelementptr inbounds i8, ptr %.pre.i.i, i64 -4
  %.pre2.i.i = load i32, ptr %.phi.trans.insert.i.i, align 4, !tbaa !560
  br label %_ZN3smt17theory_array_base19assert_store_axiom1EPNS_5enodeE.exit

_ZN3smt17theory_array_base19assert_store_axiom1EPNS_5enodeE.exit: ; preds = %9, %15
  %16 = phi i32 [ %.pre2.i.i, %15 ], [ %11, %9 ]
  %17 = phi ptr [ %.pre.i.i, %15 ], [ %7, %9 ]
  %18 = getelementptr inbounds i8, ptr %17, i64 -4
  %19 = zext i32 %16 to i64
  %20 = getelementptr inbounds nuw ptr, ptr %17, i64 %19
  store ptr %1, ptr %20, align 8, !tbaa !570
  %21 = add i32 %16, 1
  store i32 %21, ptr %18, align 4, !tbaa !560
  ret void
}